; Function Attrs: nounwind uwtable
define void @Acb_Ntk4DumpWeights(ptr noundef %0, ptr noundef readonly captures(none) %1, ptr noundef %2) local_unnamed_addr #0 {
  %4 = getelementptr i8, ptr %1, i64 4
  %.val26 = load i32, ptr %4, align 4, !tbaa !54
  %5 = tail call noalias dereferenceable_or_null(16) ptr @malloc(i64 noundef 16) #26
  %6 = add i32 %.val26, -1
  %or.cond.i = icmp ult i32 %6, 15
  %spec.store.select.i = select i1 %or.cond.i, i32 16, i32 %.val26
  %7 = getelementptr inbounds nuw i8, ptr %5, i64 4
  store i32 0, ptr %7, align 4, !tbaa !27
  store i32 %spec.store.select.i, ptr %5, align 8, !tbaa !28
  %.not.i = icmp eq i32 %spec.store.select.i, 0
  br i1 %.not.i, label %Vec_IntAlloc.exit, label %8

8:                                                ; preds = %3
  %9 = sext i32 %spec.store.select.i to i64
  %10 = shl nsw i64 %9, 2
  %11 = tail call noalias ptr @malloc(i64 noundef %10) #26
  br label %Vec_IntAlloc.exit

Vec_IntAlloc.exit:                                ; preds = %3, %8
  %12 = phi ptr [ %11, %8 ], [ null, %3 ]
  %13 = getelementptr inbounds nuw i8, ptr %5, i64 8
  store ptr %12, ptr %13, align 8, !tbaa !21
  %14 = tail call ptr @Acb_VerilogSimpleRead(ptr noundef %0, ptr noundef null) #27
  tail call fastcc void @Acb_NtkCreateFanout(ptr noundef %14)
  %.val2533 = load i32, ptr %4, align 4, !tbaa !54
  %15 = icmp sgt i32 %.val2533, 0
  br i1 %15, label %.lr.ph35, label %.critedge

.lr.ph35:                                         ; preds = %Vec_IntAlloc.exit
  %16 = getelementptr i8, ptr %1, i64 8
  %17 = getelementptr i8, ptr %14, i64 116
  %18 = getelementptr i8, ptr %14, i64 120
  %19 = getelementptr i8, ptr %14, i64 232
  %20 = load i32, ptr %17, align 4, !tbaa !39
  %21 = icmp sgt i32 %20, 1
  br i1 %21, label %.lr.ph35.split, label %.critedge

.lr.ph35.split:                                   ; preds = %.lr.ph35, %._crit_edge
  %.val2548 = phi i32 [ %.val25, %._crit_edge ], [ %.val2533, %.lr.ph35 ]
  %.pre.i43 = phi ptr [ %.pre.i44, %._crit_edge ], [ %12, %.lr.ph35 ]
  %.val2431 = phi i32 [ %.val243142, %._crit_edge ], [ %20, %.lr.ph35 ]
  %indvars.iv38 = phi i64 [ %indvars.iv.next39, %._crit_edge ], [ 0, %.lr.ph35 ]
  %.val27 = load ptr, ptr %16, align 8, !tbaa !56
  %22 = getelementptr inbounds nuw ptr, ptr %.val27, i64 %indvars.iv38
  %23 = load ptr, ptr %22, align 8, !tbaa !57
  %24 = icmp sgt i32 %.val2431, 1
  br i1 %24, label %.lr.ph, label %._crit_edge

.lr.ph:                                           ; preds = %.lr.ph35.split, %57
  %25 = phi ptr [ %.pre.i46, %57 ], [ %.pre.i43, %.lr.ph35.split ]
  %indvars.iv = phi i64 [ %indvars.iv.next, %57 ], [ 1, %.lr.ph35.split ]
  %.val = load ptr, ptr %18, align 8, !tbaa !23
  %26 = getelementptr inbounds nuw i8, ptr %.val, i64 %indvars.iv
  %27 = load i8, ptr %26, align 1, !tbaa !24
  %.not = icmp eq i8 %27, 0
  br i1 %.not, label %57, label %28

28:                                               ; preds = %.lr.ph
  %.val28 = load ptr, ptr %14, align 8, !tbaa !58
  %.val29 = load ptr, ptr %19, align 8, !tbaa !21
  %29 = getelementptr i8, ptr %.val28, i64 16
  %.val28.val = load ptr, ptr %29, align 8, !tbaa !59
  %30 = getelementptr inbounds nuw i32, ptr %.val29, i64 %indvars.iv
  %31 = load i32, ptr %30, align 4, !tbaa !22
  %32 = tail call ptr @Abc_NamStr(ptr noundef %.val28.val, i32 noundef %31) #27
  %33 = tail call i32 @strcmp(ptr noundef nonnull dereferenceable(1) %32, ptr noundef nonnull dereferenceable(1) %23) #28
  %.not23 = icmp eq i32 %33, 0
  br i1 %.not23, label %34, label %57

34:                                               ; preds = %28
  %35 = load i32, ptr %7, align 4, !tbaa !27
  %36 = load i32, ptr %5, align 8, !tbaa !28
  %37 = icmp eq i32 %35, %36
  br i1 %37, label %38, label %Vec_IntPush.exit

38:                                               ; preds = %34
  %39 = icmp slt i32 %35, 16
  br i1 %39, label %40, label %45

40:                                               ; preds = %38
  %.not9.i.i = icmp eq ptr %25, null
  br i1 %.not9.i.i, label %43, label %41

41:                                               ; preds = %40
  %42 = tail call dereferenceable_or_null(64) ptr @realloc(ptr noundef nonnull %25, i64 noundef 64) #25
  br label %Vec_IntPush.exit.sink.split

43:                                               ; preds = %40
  %44 = tail call noalias dereferenceable_or_null(64) ptr @malloc(i64 noundef 64) #26
  br label %Vec_IntPush.exit.sink.split

45:                                               ; preds = %38
  %46 = shl nuw nsw i32 %35, 1
  %.not9.i9.i = icmp eq ptr %25, null
  %47 = zext nneg i32 %46 to i64
  %48 = shl nuw nsw i64 %47, 2
  br i1 %.not9.i9.i, label %51, label %49

49:                                               ; preds = %45
  %50 = tail call ptr @realloc(ptr noundef nonnull %25, i64 noundef %48) #25
  br label %Vec_IntPush.exit.sink.split

51:                                               ; preds = %45
  %52 = tail call noalias ptr @malloc(i64 noundef %48) #26
  br label %Vec_IntPush.exit.sink.split

Vec_IntPush.exit.sink.split:                      ; preds = %49, %51, %41, %43
  %.sink50 = phi ptr [ %42, %41 ], [ %44, %43 ], [ %50, %49 ], [ %52, %51 ]
  %.sink = phi i32 [ 16, %41 ], [ 16, %43 ], [ %46, %49 ], [ %46, %51 ]
  store ptr %.sink50, ptr %13, align 8, !tbaa !21
  store i32 %.sink, ptr %5, align 8, !tbaa !28
  br label %Vec_IntPush.exit

Vec_IntPush.exit:                                 ; preds = %Vec_IntPush.exit.sink.split, %34
  %.pre.i47 = phi ptr [ %25, %34 ], [ %.sink50, %Vec_IntPush.exit.sink.split ]
  %53 = add nsw i32 %35, 1
  store i32 %53, ptr %7, align 4, !tbaa !27
  %54 = sext i32 %35 to i64
  %55 = getelementptr inbounds i32, ptr %.pre.i47, i64 %54
  %56 = trunc nuw nsw i64 %indvars.iv to i32
  store i32 %56, ptr %55, align 4, !tbaa !22
  br label %57

57:                                               ; preds = %.lr.ph, %Vec_IntPush.exit, %28
  %.pre.i46 = phi ptr [ %25, %.lr.ph ], [ %.pre.i47, %Vec_IntPush.exit ], [ %25, %28 ]
  %indvars.iv.next = add nuw nsw i64 %indvars.iv, 1
  %.val24 = load i32, ptr %17, align 4, !tbaa !39
  %58 = sext i32 %.val24 to i64
  %59 = icmp slt i64 %indvars.iv.next, %58
  br i1 %59, label %.lr.ph, label %._crit_edge.loopexit, !llvm.loop !232

._crit_edge.loopexit:                             ; preds = %57
  %.val25.pre = load i32, ptr %4, align 4, !tbaa !54
  br label %._crit_edge

._crit_edge:                                      ; preds = %._crit_edge.loopexit, %.lr.ph35.split
  %.val25 = phi i32 [ %.val25.pre, %._crit_edge.loopexit ], [ %.val2548, %.lr.ph35.split ]
  %.pre.i44 = phi ptr [ %.pre.i46, %._crit_edge.loopexit ], [ %.pre.i43, %.lr.ph35.split ]
  %.val243142 = phi i32 [ %.val24, %._crit_edge.loopexit ], [ %.val2431, %.lr.ph35.split ]
  %indvars.iv.next39 = add nuw nsw i64 %indvars.iv38, 1
  %60 = sext i32 %.val25 to i64
  %61 = icmp slt i64 %indvars.iv.next39, %60
  br i1 %61, label %.lr.ph35.split, label %.critedge, !llvm.loop !233

.critedge:                                        ; preds = %._crit_edge, %.lr.ph35, %Vec_IntAlloc.exit
  %62 = phi ptr [ %12, %Vec_IntAlloc.exit ], [ %12, %.lr.ph35 ], [ %.pre.i44, %._crit_edge ]
  tail call void @Acb_Ntk4DumpWeightsInt(ptr noundef %14, ptr noundef nonnull %5, ptr noundef %2)
  %63 = load ptr, ptr %14, align 8, !tbaa !58
  tail call fastcc void @Acb_ManFree(ptr noundef %63)
  %.not.i30 = icmp eq ptr %62, null
  br i1 %.not.i30, label %Vec_IntFree.exit, label %64

64:                                               ; preds = %.critedge
  tail call void @free(ptr noundef nonnull %62) #27
  br label %Vec_IntFree.exit

Vec_IntFree.exit:                                 ; preds = %.critedge, %64
  tail call void @free(ptr noundef nonnull %5) #27
  ret void
}